cat: cat: No such file or directory
Certificate:
    Data:
        Version: 3 (0x2)
        Serial Number:
            57:97:b0:4d:37:15:c4:90:2b:50:a4:42:2d:b7:a4:db
    Signature Algorithm: sha256WithRSAEncryption
        Issuer: CN=devops
        Validity
            Not Before: Mar 27 15:43:35 2019 GMT
            Not After : Mar 11 15:43:35 2022 GMT
        Subject: CN=client1.domain.tld
        Subject Public Key Info:
            Public Key Algorithm: rsaEncryption
                Public-Key: (2048 bit)
                Modulus:
                    00:e5:cb:f0:20:54:70:c1:ee:43:13:3b:79:67:2c:
                    f2:3f:b8:97:99:ad:6e:52:23:4c:9f:83:93:21:17:
                    99:27:00:a7:27:2e:cf:e4:bb:91:a7:7e:89:62:7a:
                    e1:25:66:4a:bb:ea:02:00:23:01:a6:b5:1a:9a:a1:
                    1d:ca:22:c6:14:bb:9b:0c:cf:0c:4d:33:80:b9:ae:
                    a9:1b:a1:92:5d:d7:63:2b:b7:8c:ff:a2:55:0c:a2:
                    2b:52:15:03:4e:c8:0c:91:87:d0:d5:9b:59:6c:e8:
                    2a:b3:30:21:3e:d9:09:05:c2:2d:fa:72:e3:a5:af:
                    9c:fd:6b:de:c3:36:f9:bd:b2:cf:c6:4e:a6:01:ac:
                    3f:13:13:f3:53:bc:2e:20:73:2c:e3:a8:1b:af:e9:
                    ac:03:46:81:c8:91:92:75:ae:12:51:c8:4b:d1:a5:
                    27:8b:ac:47:75:14:90:05:0f:e8:33:85:f7:c6:af:
                    23:d1:af:52:96:f0:c8:c6:34:aa:bd:f9:bf:f0:a1:
                    6d:7f:6d:bd:41:3a:db:e3:35:3f:c7:83:e8:88:32:
                    54:c8:2c:f0:01:fa:92:32:2d:07:9a:2d:21:55:24:
                    c8:00:b2:96:7c:c5:b4:5e:5b:aa:c3:f0:6a:3c:a2:
                    b7:39:7a:8f:6e:4e:ff:85:e1:85:65:bd:42:57:fd:
                    fa:21
                Exponent: 65537 (0x10001)
        X509v3 extensions:
            X509v3 Basic Constraints: 
                CA:FALSE
            X509v3 Subject Key Identifier: 
                E3:86:58:00:F6:63:44:75:BC:EC:10:4F:C4:C9:C3:68:C1:E7:99:5D
            X509v3 Authority Key Identifier: 
                keyid:0E:D2:9A:2E:CD:3B:34:BD:3A:8B:D9:B4:90:DD:5F:77:3A:84:BC:EE
                DirName:/CN=devops
                serial:FC:C4:0B:81:08:4B:08:FF

            X509v3 Extended Key Usage: 
                TLS Web Client Authentication
            X509v3 Key Usage: 
                Digital Signature
    Signature Algorithm: sha256WithRSAEncryption
         17:e7:b8:7a:3e:cd:d3:95:63:88:c1:72:bb:f5:2e:2e:b2:97:
         60:89:4d:92:76:63:5d:d5:cc:ed:73:82:77:ec:b1:b4:3b:1e:
         0a:9f:a9:d6:2b:98:9d:9f:42:9c:c6:96:ce:c0:00:02:18:75:
         b6:13:85:a1:4f:12:91:48:73:9f:2b:00:f5:14:2c:e9:e8:c0:
         3b:ce:f2:0d:32:c6:61:84:ad:dd:34:46:1f:d4:08:4d:38:a3:
         53:17:8d:13:e8:c6:f4:54:de:a2:66:b4:0d:3d:e9:66:a6:48:
         09:18:9c:d4:63:67:28:ca:14:cb:7e:cd:22:9d:84:33:09:4b:
         c6:ab:c0:81:33:42:3f:b1:6d:8d:7e:a1:97:ea:b8:45:43:f0:
         2a:09:36:08:c4:3a:c5:5c:9f:46:03:18:02:f4:9a:85:82:86:
         b6:75:e5:c0:18:eb:86:7f:4a:ab:fc:42:d9:75:44:5f:8d:78:
         78:38:b9:fb:64:0a:43:e4:88:af:7f:09:0c:67:25:59:15:44:
         3d:8e:a0:e9:54:2e:76:4c:80:08:43:63:13:83:f5:74:fc:75:
         e1:2b:ca:63:cc:fe:22:8a:d6:1a:b5:b0:de:a8:cf:0c:82:ea:
         83:8d:0d:31:2f:5d:90:11:18:f1:a6:bf:c7:ab:c2:03:36:41:
         3e:cb:10:bf
-----BEGIN CERTIFICATE-----
MIIDSzCCAjOgAwIBAgIQV5ewTTcVxJArUKRCLbek2zANBgkqhkiG9w0BAQsFADAR
MQ8wDQYDVQQDDAZkZXZvcHMwHhcNMTkwMzI3MTU0MzM1WhcNMjIwMzExMTU0MzM1
WjAdMRswGQYDVQQDDBJjbGllbnQxLmRvbWFpbi50bGQwggEiMA0GCSqGSIb3DQEB
AQUAA4IBDwAwggEKAoIBAQDly/AgVHDB7kMTO3lnLPI/uJeZrW5SI0yfg5MhF5kn
AKcnLs/ku5GnfolieuElZkq76gIAIwGmtRqaoR3KIsYUu5sMzwxNM4C5rqkboZJd
12Mrt4z/olUMoitSFQNOyAyRh9DVm1ls6CqzMCE+2QkFwi36cuOlr5z9a97DNvm9
ss/GTqYBrD8TE/NTvC4gcyzjqBuv6awDRoHIkZJ1rhJRyEvRpSeLrEd1FJAFD+gz
hffGryPRr1KW8MjGNKq9+b/woW1/bb1BOtvjNT/Hg+iIMlTILPAB+pIyLQeaLSFV
JMgAspZ8xbReW6rD8Go8orc5eo9uTv+F4YVlvUJX/fohAgMBAAGjgZIwgY8wCQYD
VR0TBAIwADAdBgNVHQ4EFgQU44ZYAPZjRHW87BBPxMnDaMHnmV0wQQYDVR0jBDow
OIAUDtKaLs07NL06i9m0kN1fdzqEvO6hFaQTMBExDzANBgNVBAMMBmRldm9wc4IJ
APzEC4EISwj/MBMGA1UdJQQMMAoGCCsGAQUFBwMCMAsGA1UdDwQEAwIHgDANBgkq
hkiG9w0BAQsFAAOCAQEAF+e4ej7N05VjiMFyu/UuLrKXYIlNknZjXdXM7XOCd+yx
tDseCp+p1iuYnZ9CnMaWzsAAAhh1thOFoU8SkUhznysA9RQs6ejAO87yDTLGYYSt
3TRGH9QITTijUxeNE+jG9FTeoma0DT3pZqZICRic1GNnKMoUy37NIp2EMwlLxqvA
gTNCP7FtjX6hl+q4RUPwKgk2CMQ6xVyfRgMYAvSahYKGtnXlwBjrhn9Kq/xC2XVE
X414eDi5+2QKQ+SIr38JDGclWRVEPY6g6VQudkyACENjE4P1dPx14SvKY8z+IorW
GrWw3qjPDILqg40NMS9dkBEY8aa/x6vCAzZBPssQvw==
-----END CERTIFICATE-----
